target datalayout = "e-m:e-p270:32:32-p271:32:32-p272:64:64-i64:64-i128:128-f80:128-n8:16:32:64-S128"
target triple = "x86_64-pc-linux-gnu"

%struct._reo_man = type { i32, i32, i32, i32, i32, i32, ptr, ptr, i32, ptr, i32, i32, ptr, ptr, ptr, ptr, i32, i32, i32, i32, i32, i32, double, double, double, ptr, ptr, ptr, ptr, i32, ptr, i32, i32, ptr, i32, i32, i32, ptr, i32, i32, ptr, ptr, i32, i32, i32, i32, i32, i32, i32 }

; Function Attrs: nounwind uwtable
define void @Extra_ReorderQuit(ptr noundef %0) #0 {
  %2 = alloca ptr, align 8
  store ptr %0, ptr %2, align 8, !tbaa !7
  %3 = load ptr, ptr %2, align 8, !tbaa !7
  %4 = getelementptr inbounds nuw %struct._reo_man, ptr %3, i32 0, i32 30
  %5 = load ptr, ptr %4, align 8, !tbaa !26
  %6 = icmp ne ptr %5, null
  br i1 %6, label %7, label %13

7:                                                ; preds = %1
  %8 = load ptr, ptr %2, align 8, !tbaa !7
  %9 = getelementptr inbounds nuw %struct._reo_man, ptr %8, i32 0, i32 30
  %10 = load ptr, ptr %9, align 8, !tbaa !26
  call void @free(ptr noundef %10) #6
  %11 = load ptr, ptr %2, align 8, !tbaa !7
  %12 = getelementptr inbounds nuw %struct._reo_man, ptr %11, i32 0, i32 30
  store ptr null, ptr %12, align 8, !tbaa !26
  br label %14

13:                                               ; preds = %1
  br label %14

14:                                               ; preds = %13, %7
  %15 = load ptr, ptr %2, align 8, !tbaa !7
  %16 = getelementptr inbounds nuw %struct._reo_man, ptr %15, i32 0, i32 9
  %17 = load ptr, ptr %16, align 8, !tbaa !27
  %18 = icmp ne ptr %17, null
  br i1 %18, label %19, label %25

19:                                               ; preds = %14
  %20 = load ptr, ptr %2, align 8, !tbaa !7
  %21 = getelementptr inbounds nuw %struct._reo_man, ptr %20, i32 0, i32 9
  %22 = load ptr, ptr %21, align 8, !tbaa !27
  call void @free(ptr noundef %22) #6
  %23 = load ptr, ptr %2, align 8, !tbaa !7
  %24 = getelementptr inbounds nuw %struct._reo_man, ptr %23, i32 0, i32 9
  store ptr null, ptr %24, align 8, !tbaa !27
  br label %26

25:                                               ; preds = %14
  br label %26

26:                                               ; preds = %25, %19
  %27 = load ptr, ptr %2, align 8, !tbaa !7
  %28 = getelementptr inbounds nuw %struct._reo_man, ptr %27, i32 0, i32 12
  %29 = load ptr, ptr %28, align 8, !tbaa !28
  %30 = icmp ne ptr %29, null
  br i1 %30, label %31, label %37

31:                                               ; preds = %26
  %32 = load ptr, ptr %2, align 8, !tbaa !7
  %33 = getelementptr inbounds nuw %struct._reo_man, ptr %32, i32 0, i32 12
  %34 = load ptr, ptr %33, align 8, !tbaa !28
  call void @free(ptr noundef %34) #6
  %35 = load ptr, ptr %2, align 8, !tbaa !7
  %36 = getelementptr inbounds nuw %struct._reo_man, ptr %35, i32 0, i32 12
  store ptr null, ptr %36, align 8, !tbaa !28
  br label %38

37:                                               ; preds = %26
  br label %38

38:                                               ; preds = %37, %31
  %39 = load ptr, ptr %2, align 8, !tbaa !7
  %40 = getelementptr inbounds nuw %struct._reo_man, ptr %39, i32 0, i32 15
  %41 = load ptr, ptr %40, align 8, !tbaa !29
  %42 = icmp ne ptr %41, null
  br i1 %42, label %43, label %49

43:                                               ; preds = %38
  %44 = load ptr, ptr %2, align 8, !tbaa !7
  %45 = getelementptr inbounds nuw %struct._reo_man, ptr %44, i32 0, i32 15
  %46 = load ptr, ptr %45, align 8, !tbaa !29
  call void @free(ptr noundef %46) #6
  %47 = load ptr, ptr %2, align 8, !tbaa !7
  %48 = getelementptr inbounds nuw %struct._reo_man, ptr %47, i32 0, i32 15
  store ptr null, ptr %48, align 8, !tbaa !29
  br label %50

49:                                               ; preds = %38
  br label %50

50:                                               ; preds = %49, %43
  %51 = load ptr, ptr %2, align 8, !tbaa !7
  %52 = getelementptr inbounds nuw %struct._reo_man, ptr %51, i32 0, i32 25
  %53 = load ptr, ptr %52, align 8, !tbaa !30
  %54 = icmp ne ptr %53, null
  br i1 %54, label %55, label %61

55:                                               ; preds = %50
  %56 = load ptr, ptr %2, align 8, !tbaa !7
  %57 = getelementptr inbounds nuw %struct._reo_man, ptr %56, i32 0, i32 25
  %58 = load ptr, ptr %57, align 8, !tbaa !30
  call void @free(ptr noundef %58) #6
  %59 = load ptr, ptr %2, align 8, !tbaa !7
  %60 = getelementptr inbounds nuw %struct._reo_man, ptr %59, i32 0, i32 25
  store ptr null, ptr %60, align 8, !tbaa !30
  br label %62

61:                                               ; preds = %50
  br label %62

62:                                               ; preds = %61, %55
  %63 = load ptr, ptr %2, align 8, !tbaa !7
  %64 = getelementptr inbounds nuw %struct._reo_man, ptr %63, i32 0, i32 26
  %65 = load ptr, ptr %64, align 8, !tbaa !31
  %66 = icmp ne ptr %65, null
  br i1 %66, label %67, label %73

67:                                               ; preds = %62
  %68 = load ptr, ptr %2, align 8, !tbaa !7
  %69 = getelementptr inbounds nuw %struct._reo_man, ptr %68, i32 0, i32 26
  %70 = load ptr, ptr %69, align 8, !tbaa !31
  call void @free(ptr noundef %70) #6
  %71 = load ptr, ptr %2, align 8, !tbaa !7
  %72 = getelementptr inbounds nuw %struct._reo_man, ptr %71, i32 0, i32 26
  store ptr null, ptr %72, align 8, !tbaa !31
  br label %74

73:                                               ; preds = %62
  br label %74

74:                                               ; preds = %73, %67
  %75 = load ptr, ptr %2, align 8, !tbaa !7
  %76 = getelementptr inbounds nuw %struct._reo_man, ptr %75, i32 0, i32 27
  %77 = load ptr, ptr %76, align 8, !tbaa !32
  %78 = icmp ne ptr %77, null
  br i1 %78, label %79, label %85

79:                                               ; preds = %74
  %80 = load ptr, ptr %2, align 8, !tbaa !7
  %81 = getelementptr inbounds nuw %struct._reo_man, ptr %80, i32 0, i32 27
  %82 = load ptr, ptr %81, align 8, !tbaa !32
  call void @free(ptr noundef %82) #6
  %83 = load ptr, ptr %2, align 8, !tbaa !7
  %84 = getelementptr inbounds nuw %struct._reo_man, ptr %83, i32 0, i32 27
  store ptr null, ptr %84, align 8, !tbaa !32
  br label %86

85:                                               ; preds = %74
  br label %86

86:                                               ; preds = %85, %79
  %87 = load ptr, ptr %2, align 8, !tbaa !7
  %88 = getelementptr inbounds nuw %struct._reo_man, ptr %87, i32 0, i32 28
  %89 = load ptr, ptr %88, align 8, !tbaa !33
  %90 = icmp ne ptr %89, null
  br i1 %90, label %91, label %97

91:                                               ; preds = %86
  %92 = load ptr, ptr %2, align 8, !tbaa !7
  %93 = getelementptr inbounds nuw %struct._reo_man, ptr %92, i32 0, i32 28
  %94 = load ptr, ptr %93, align 8, !tbaa !33
  call void @free(ptr noundef %94) #6
  %95 = load ptr, ptr %2, align 8, !tbaa !7
  %96 = getelementptr inbounds nuw %struct._reo_man, ptr %95, i32 0, i32 28
  store ptr null, ptr %96, align 8, !tbaa !33
  br label %98

97:                                               ; preds = %86
  br label %98

98:                                               ; preds = %97, %91
  %99 = load ptr, ptr %2, align 8, !tbaa !7
  %100 = getelementptr inbounds nuw %struct._reo_man, ptr %99, i32 0, i32 13
  %101 = load ptr, ptr %100, align 8, !tbaa !34
  %102 = icmp ne ptr %101, null
  br i1 %102, label %103, label %109

103:                                              ; preds = %98
  %104 = load ptr, ptr %2, align 8, !tbaa !7
  %105 = getelementptr inbounds nuw %struct._reo_man, ptr %104, i32 0, i32 13
  %106 = load ptr, ptr %105, align 8, !tbaa !34
  call void @free(ptr noundef %106) #6
  %107 = load ptr, ptr %2, align 8, !tbaa !7
  %108 = getelementptr inbounds nuw %struct._reo_man, ptr %107, i32 0, i32 13
  store ptr null, ptr %108, align 8, !tbaa !34
  br label %110

109:                                              ; preds = %98
  br label %110

110:                                              ; preds = %109, %103
  %111 = load ptr, ptr %2, align 8, !tbaa !7
  %112 = getelementptr inbounds nuw %struct._reo_man, ptr %111, i32 0, i32 14
  %113 = load ptr, ptr %112, align 8, !tbaa !35
  %114 = icmp ne ptr %113, null
  br i1 %114, label %115, label %121

115:                                              ; preds = %110
  %116 = load ptr, ptr %2, align 8, !tbaa !7
  %117 = getelementptr inbounds nuw %struct._reo_man, ptr %116, i32 0, i32 14
  %118 = load ptr, ptr %117, align 8, !tbaa !35
  call void @free(ptr noundef %118) #6
  %119 = load ptr, ptr %2, align 8, !tbaa !7
  %120 = getelementptr inbounds nuw %struct._reo_man, ptr %119, i32 0, i32 14
  store ptr null, ptr %120, align 8, !tbaa !35
  br label %122

121:                                              ; preds = %110
  br label %122

122:                                              ; preds = %121, %115
  %123 = load ptr, ptr %2, align 8, !tbaa !7
  %124 = getelementptr inbounds nuw %struct._reo_man, ptr %123, i32 0, i32 33
  %125 = load ptr, ptr %124, align 8, !tbaa !36
  %126 = icmp ne ptr %125, null
  br i1 %126, label %127, label %133

127:                                              ; preds = %122
  %128 = load ptr, ptr %2, align 8, !tbaa !7
  %129 = getelementptr inbounds nuw %struct._reo_man, ptr %128, i32 0, i32 33
  %130 = load ptr, ptr %129, align 8, !tbaa !36
  call void @free(ptr noundef %130) #6
  %131 = load ptr, ptr %2, align 8, !tbaa !7
  %132 = getelementptr inbounds nuw %struct._reo_man, ptr %131, i32 0, i32 33
  store ptr null, ptr %132, align 8, !tbaa !36
  br label %134

133:                                              ; preds = %122
  br label %134

134:                                              ; preds = %133, %127
  %135 = load ptr, ptr %2, align 8, !tbaa !7
  %136 = getelementptr inbounds nuw %struct._reo_man, ptr %135, i32 0, i32 37
  %137 = load ptr, ptr %136, align 8, !tbaa !37
  %138 = icmp ne ptr %137, null
  br i1 %138, label %139, label %145

139:                                              ; preds = %134
  %140 = load ptr, ptr %2, align 8, !tbaa !7
  %141 = getelementptr inbounds nuw %struct._reo_man, ptr %140, i32 0, i32 37
  %142 = load ptr, ptr %141, align 8, !tbaa !37
  call void @free(ptr noundef %142) #6
  %143 = load ptr, ptr %2, align 8, !tbaa !7
  %144 = getelementptr inbounds nuw %struct._reo_man, ptr %143, i32 0, i32 37
  store ptr null, ptr %144, align 8, !tbaa !37
  br label %146

145:                                              ; preds = %134
  br label %146

146:                                              ; preds = %145, %139
  %147 = load ptr, ptr %2, align 8, !tbaa !7
  call void @reoUnitsStopDispenser(ptr noundef %147)
  %148 = load ptr, ptr %2, align 8, !tbaa !7
  %149 = getelementptr inbounds nuw %struct._reo_man, ptr %148, i32 0, i32 41
  %150 = load ptr, ptr %149, align 8, !tbaa !38
  %151 = icmp ne ptr %150, null
  br i1 %151, label %152, label %158

152:                                              ; preds = %146
  %153 = load ptr, ptr %2, align 8, !tbaa !7
  %154 = getelementptr inbounds nuw %struct._reo_man, ptr %153, i32 0, i32 41
  %155 = load ptr, ptr %154, align 8, !tbaa !38
  call void @free(ptr noundef %155) #6
  %156 = load ptr, ptr %2, align 8, !tbaa !7
  %157 = getelementptr inbounds nuw %struct._reo_man, ptr %156, i32 0, i32 41
  store ptr null, ptr %157, align 8, !tbaa !38
  br label %159

158:                                              ; preds = %146
  br label %159

159:                                              ; preds = %158, %152
  %160 = load ptr, ptr %2, align 8, !tbaa !7
  %161 = icmp ne ptr %160, null
  br i1 %161, label %162, label %164

162:                                              ; preds = %159
  %163 = load ptr, ptr %2, align 8, !tbaa !7
  call void @free(ptr noundef %163) #6
  store ptr null, ptr %2, align 8, !tbaa !7
  br label %165

164:                                              ; preds = %159
  br label %165

165:                                              ; preds = %164, %162
  ret void
}