; Function Attrs: nounwind uwtable
define void @Extra_ReorderQuit(ptr noundef %0) local_unnamed_addr #0 {
  %2 = getelementptr inbounds nuw i8, ptr %0, i64 184
  %3 = load ptr, ptr %2, align 8, !tbaa !18
  %.not = icmp eq ptr %3, null
  br i1 %.not, label %5, label %4

4:                                                ; preds = %1
  tail call void @free(ptr noundef nonnull %3) #7
  store ptr null, ptr %2, align 8, !tbaa !18
  br label %5

5:                                                ; preds = %1, %4
  %6 = getelementptr inbounds nuw i8, ptr %0, i64 48
  %7 = load ptr, ptr %6, align 8, !tbaa !19
  %.not55 = icmp eq ptr %7, null
  br i1 %.not55, label %9, label %8

8:                                                ; preds = %5
  tail call void @free(ptr noundef nonnull %7) #7
  store ptr null, ptr %6, align 8, !tbaa !19
  br label %9

9:                                                ; preds = %5, %8
  %10 = getelementptr inbounds nuw i8, ptr %0, i64 64
  %11 = load ptr, ptr %10, align 8, !tbaa !20
  %.not56 = icmp eq ptr %11, null
  br i1 %.not56, label %13, label %12

12:                                               ; preds = %9
  tail call void @free(ptr noundef nonnull %11) #7
  store ptr null, ptr %10, align 8, !tbaa !20
  br label %13

13:                                               ; preds = %9, %12
  %14 = getelementptr inbounds nuw i8, ptr %0, i64 88
  %15 = load ptr, ptr %14, align 8, !tbaa !21
  %.not57 = icmp eq ptr %15, null
  br i1 %.not57, label %17, label %16

16:                                               ; preds = %13
  tail call void @free(ptr noundef nonnull %15) #7
  store ptr null, ptr %14, align 8, !tbaa !21
  br label %17

17:                                               ; preds = %13, %16
  %18 = getelementptr inbounds nuw i8, ptr %0, i64 144
  %19 = load ptr, ptr %18, align 8, !tbaa !22
  %.not58 = icmp eq ptr %19, null
  br i1 %.not58, label %21, label %20

20:                                               ; preds = %17
  tail call void @free(ptr noundef nonnull %19) #7
  store ptr null, ptr %18, align 8, !tbaa !22
  br label %21

21:                                               ; preds = %17, %20
  %22 = getelementptr inbounds nuw i8, ptr %0, i64 152
  %23 = load ptr, ptr %22, align 8, !tbaa !23
  %.not59 = icmp eq ptr %23, null
  br i1 %.not59, label %25, label %24

24:                                               ; preds = %21
  tail call void @free(ptr noundef nonnull %23) #7
  store ptr null, ptr %22, align 8, !tbaa !23
  br label %25

25:                                               ; preds = %21, %24
  %26 = getelementptr inbounds nuw i8, ptr %0, i64 160
  %27 = load ptr, ptr %26, align 8, !tbaa !24
  %.not60 = icmp eq ptr %27, null
  br i1 %.not60, label %29, label %28

28:                                               ; preds = %25
  tail call void @free(ptr noundef nonnull %27) #7
  store ptr null, ptr %26, align 8, !tbaa !24
  br label %29

29:                                               ; preds = %25, %28
  %30 = getelementptr inbounds nuw i8, ptr %0, i64 168
  %31 = load ptr, ptr %30, align 8, !tbaa !25
  %.not61 = icmp eq ptr %31, null
  br i1 %.not61, label %33, label %32

32:                                               ; preds = %29
  tail call void @free(ptr noundef nonnull %31) #7
  store ptr null, ptr %30, align 8, !tbaa !25
  br label %33

33:                                               ; preds = %29, %32
  %34 = getelementptr inbounds nuw i8, ptr %0, i64 72
  %35 = load ptr, ptr %34, align 8, !tbaa !26
  %.not62 = icmp eq ptr %35, null
  br i1 %.not62, label %37, label %36

36:                                               ; preds = %33
  tail call void @free(ptr noundef nonnull %35) #7
  store ptr null, ptr %34, align 8, !tbaa !26
  br label %37

37:                                               ; preds = %33, %36
  %38 = getelementptr inbounds nuw i8, ptr %0, i64 80
  %39 = load ptr, ptr %38, align 8, !tbaa !27
  %.not63 = icmp eq ptr %39, null
  br i1 %.not63, label %41, label %40

40:                                               ; preds = %37
  tail call void @free(ptr noundef nonnull %39) #7
  store ptr null, ptr %38, align 8, !tbaa !27
  br label %41

41:                                               ; preds = %37, %40
  %42 = getelementptr inbounds nuw i8, ptr %0, i64 200
  %43 = load ptr, ptr %42, align 8, !tbaa !28
  %.not64 = icmp eq ptr %43, null
  br i1 %.not64, label %45, label %44

44:                                               ; preds = %41
  tail call void @free(ptr noundef nonnull %43) #7
  store ptr null, ptr %42, align 8, !tbaa !28
  br label %45

45:                                               ; preds = %41, %44
  %46 = getelementptr inbounds nuw i8, ptr %0, i64 224
  %47 = load ptr, ptr %46, align 8, !tbaa !29
  %.not65 = icmp eq ptr %47, null
  br i1 %.not65, label %49, label %48

48:                                               ; preds = %45
  tail call void @free(ptr noundef nonnull %47) #7
  store ptr null, ptr %46, align 8, !tbaa !29
  br label %49

49:                                               ; preds = %45, %48
  tail call void @reoUnitsStopDispenser(ptr noundef nonnull %0) #7
  %50 = getelementptr inbounds nuw i8, ptr %0, i64 248
  %51 = load ptr, ptr %50, align 8, !tbaa !30
  %.not66 = icmp eq ptr %51, null
  br i1 %.not66, label %53, label %52

52:                                               ; preds = %49
  tail call void @free(ptr noundef nonnull %51) #7
  br label %53

53:                                               ; preds = %49, %52
  tail call void @free(ptr noundef nonnull %0) #7
  ret void
}